target datalayout = "e-m:e-p270:32:32-p271:32:32-p272:64:64-i64:64-i128:128-f80:128-n8:16:32:64-S128"
target triple = "x86_64-pc-linux-gnu"

@Extra_UtilPrintTime.s = internal global [40 x i8] zeroinitializer, align 16
@.str.2 = private unnamed_addr constant [14 x i8] c"%ld.%02ld sec\00", align 1

; Function Attrs: nounwind uwtable
define ptr @Extra_UtilPrintTime(i64 noundef %0) #0 {
  %2 = alloca i64, align 8
  store i64 %0, ptr %2, align 8
  %3 = load i64, ptr %2, align 8
  %4 = sdiv i64 %3, 1000
  %5 = load i64, ptr %2, align 8
  %6 = srem i64 %5, 1000
  %7 = sdiv i64 %6, 10
  %8 = call i32 (ptr, ptr, ...) @sprintf(ptr noundef @Extra_UtilPrintTime.s, ptr noundef @.str.2, i64 noundef %4, i64 noundef %7) #7
  ret ptr @Extra_UtilPrintTime.s
}