; Function Attrs: nofree nounwind uwtable
define noundef nonnull ptr @Extra_UtilPrintTime(i64 noundef %0) local_unnamed_addr #2 {
  %2 = sdiv i64 %0, 1000
  %3 = srem i64 %0, 1000
  %.lhs.trunc = trunc nsw i64 %3 to i16
  %4 = sdiv i16 %.lhs.trunc, 10
  %.sext = sext i16 %4 to i64
  %5 = tail call i32 (ptr, ptr, ...) @sprintf(ptr noundef nonnull dereferenceable(1) @Extra_UtilPrintTime.s, ptr noundef nonnull dereferenceable(1) @.str.2, i64 noundef %2, i64 noundef %.sext) #16
  ret ptr @Extra_UtilPrintTime.s
}